target datalayout = "e-m:e-p270:32:32-p271:32:32-p272:64:64-i64:64-i128:128-f80:128-n8:16:32:64-S128"
target triple = "x86_64-pc-linux-gnu"

%struct.redisServer = type { i32, i64, ptr, ptr, ptr, i32, i32, i32, i32, i32, ptr, ptr, ptr, ptr, ptr, i32, i32, i32, i32, i64, i32, i32, i32, i32, ptr, i32, i32, [41 x i8], i32, i64, i32, i32, i32, ptr, ptr, i32, i32, i64, ptr, ptr, ptr, ptr, [2 x i32], i32, i32, i32, i32, i32, i32, [16 x ptr], i32, ptr, ptr, i32, [8 x %struct.connListener], i32, %struct.connListener, ptr, ptr, ptr, ptr, ptr, ptr, ptr, ptr, ptr, ptr, i32, ptr, i32, ptr, [3 x %struct.pause_event], [256 x i8], ptr, i64, i32, i32, [128 x i32], i32, i32, i64, i32, i32, i32, i32, i32, i64, i64, i64, i64, i64, i64, i64, i64, i64, i64, double, i64, i64, i64, i64, i64, i64, i64, i64, i64, i64, i64, i64, i64, i64, i64, i64, i64, i64, i64, i64, i64, double, i64, i64, i64, i64, i64, ptr, i64, i64, i64, %struct.malloc_stats, i64, i64, i64, i64, i64, i64, i64, i64, i64, i64, i64, i64, double, [4 x i64], i64, i64, i64, i64, [128 x i64], [128 x i64], i64, i64, [7 x %struct.anon], i64, i64, i64, i64, i64, i64, [4 x %struct.durationStats], i32, i32, i32, i32, i32, i32, i32, i32, i32, i32, i32, i32, i64, i32, i32, i32, i32, i64, i64, i32, i32, i32, i32, i32, ptr, [3 x %struct.clientBufferLimitsConfig], i32, i32, i32, ptr, i32, i32, i32, i32, i32, i32, ptr, ptr, i32, i32, i64, i64, i64, i64, i64, i32, i32, ptr, i32, i32, i64, i64, i64, i64, i64, i32, i32, i64, i32, i32, i32, i32, i32, i32, i32, i32, ptr, i32, i64, i64, i64, i64, i32, ptr, i32, ptr, i32, i32, i32, i64, i64, i64, i64, i32, i32, i32, i32, i32, i32, ptr, i32, i32, ptr, i32, i32, i32, [2 x i32], i32, %struct.redisOpArray, i32, ptr, i32, ptr, i32, i32, i32, i32, i32, i32, i32, [41 x i8], [41 x i8], i64, i64, i64, i64, i32, i32, ptr, i64, i64, %struct.replDataBuf, i64, i64, i32, i32, i32, i32, i32, i32, i32, i32, i32, i64, ptr, i64, ptr, ptr, ptr, i32, i32, ptr, ptr, i32, i32, i32, i64, i64, i64, i64, ptr, ptr, i32, ptr, i64, i32, i32, i32, i64, i32, i32, i32, i32, ptr, i32, i32, [41 x i8], i64, i32, ptr, i32, i32, i64, i64, i32, i32, i32, i32, i32, i64, [3 x i32], i32, i32, i32, [10 x i32], ptr, ptr, i32, i64, ptr, ptr, i32, i32, i32, i32, i64, i64, i64, i64, i64, i64, i64, i64, i64, i64, i32, i32, i64, i64, i32, i64, i64, i64, i64, i64, ptr, ptr, i32, ptr, i32, i32, i32, i32, i64, i64, ptr, ptr, i32, i32, i32, i32, i32, ptr, ptr, ptr, i32, i32, i32, i32, i32, i32, i32, i64, i32, i32, i64, i32, i32, i32, i32, i32, i32, i32, i64, ptr, ptr, i64, ptr, i32, %struct.aclInfo, i32, i64, i32, i32, i32, %struct.redisTLSContextConfig, ptr, ptr, ptr, ptr, ptr, i64, i32, ptr, i32, i32, i32, i64, i32, ptr }
%struct.connListener = type { [16 x i32], i32, ptr, i32, i32, ptr, ptr }
%struct.pause_event = type { i32, i64 }
%struct.malloc_stats = type { i64, i64, i64, i64, i64, i64, i64, i64, i64, i64, i64 }
%struct.anon = type { i64, i64, [16 x i64], i32 }
%struct.durationStats = type { i64, i64, i64 }
%struct.clientBufferLimitsConfig = type { i64, i64, i64 }
%struct.redisOpArray = type { ptr, i32, i32 }
%struct.replDataBuf = type { ptr, i64, i64, i64, i64 }
%struct.aclInfo = type { i64, i64, i64, i64 }
%struct.redisTLSContextConfig = type { ptr, ptr, ptr, ptr, ptr, ptr, ptr, ptr, ptr, ptr, ptr, ptr, i32, i32, i32, i32 }
%struct.redisObject = type { i32, i32, ptr }
%struct.raxIterator = type { i32, ptr, ptr, ptr, i64, i64, [128 x i8], ptr, %struct.raxStack, ptr }
%struct.raxStack = type { ptr, i64, i64, [32 x ptr], i32 }
%struct.stream = type { ptr, i64, %struct.streamID, %struct.streamID, %struct.streamID, i64, ptr }
%struct.streamID = type { i64, i64 }
%struct.rax = type { ptr, i64, i64, [0 x ptr] }

@server = external global %struct.redisServer, align 8
@.str = private unnamed_addr constant [9 x i8] c"defrag.c\00", align 1
@scanLaterStreamListpacks.last = internal global [16 x i8] zeroinitializer, align 16
@.str.12 = private unnamed_addr constant [2 x i8] c"^\00", align 1
@.str.13 = private unnamed_addr constant [2 x i8] c">\00", align 1
@.str.14 = private unnamed_addr constant [25 x i8] c"ri.key_len==sizeof(last)\00", align 1

; Function Attrs: nounwind uwtable
define dso_local ptr @activeDefragAlloc(ptr noundef %0) #0 {
  %2 = alloca ptr, align 8
  %3 = alloca ptr, align 8
  %4 = alloca i64, align 8
  %5 = alloca ptr, align 8
  %6 = alloca i32, align 4
  store ptr %0, ptr %3, align 8, !tbaa !5
  call void @llvm.lifetime.start.p0(i64 8, ptr %4) #10
  call void @llvm.lifetime.start.p0(i64 8, ptr %5) #10
  %7 = load ptr, ptr %3, align 8, !tbaa !5
  %8 = call i32 @je_get_defrag_hint(ptr noundef %7)
  %9 = icmp ne i32 %8, 0
  br i1 %9, label %13, label %10

10:                                               ; preds = %1
  %11 = load i64, ptr getelementptr inbounds nuw (%struct.redisServer, ptr @server, i32 0, i32 107), align 8, !tbaa !9
  %12 = add nsw i64 %11, 1
  store i64 %12, ptr getelementptr inbounds nuw (%struct.redisServer, ptr @server, i32 0, i32 107), align 8, !tbaa !9
  store ptr null, ptr %2, align 8
  store i32 1, ptr %6, align 4
  br label %25

13:                                               ; preds = %1
  %14 = load ptr, ptr %3, align 8, !tbaa !5
  %15 = call i64 @je_malloc_usable_size(ptr noundef %14) #10
  store i64 %15, ptr %4, align 8, !tbaa !39
  %16 = load i64, ptr %4, align 8, !tbaa !39
  %17 = call noalias ptr @zmalloc_no_tcache(i64 noundef %16)
  store ptr %17, ptr %5, align 8, !tbaa !5
  %18 = load ptr, ptr %5, align 8, !tbaa !5
  %19 = load ptr, ptr %3, align 8, !tbaa !5
  %20 = load i64, ptr %4, align 8, !tbaa !39
  call void @llvm.memcpy.p0.p0.i64(ptr align 1 %18, ptr align 1 %19, i64 %20, i1 false)
  %21 = load ptr, ptr %3, align 8, !tbaa !5
  call void @zfree_no_tcache(ptr noundef %21)
  %22 = load i64, ptr getelementptr inbounds nuw (%struct.redisServer, ptr @server, i32 0, i32 106), align 8, !tbaa !40
  %23 = add nsw i64 %22, 1
  store i64 %23, ptr getelementptr inbounds nuw (%struct.redisServer, ptr @server, i32 0, i32 106), align 8, !tbaa !40
  %24 = load ptr, ptr %5, align 8, !tbaa !5
  store ptr %24, ptr %2, align 8
  store i32 1, ptr %6, align 4
  br label %25

25:                                               ; preds = %13, %10
  call void @llvm.lifetime.end.p0(i64 8, ptr %5) #10
  call void @llvm.lifetime.end.p0(i64 8, ptr %4) #10
  %26 = load ptr, ptr %2, align 8
  ret ptr %26
}

; Function Attrs: nounwind uwtable
define dso_local i32 @defragRaxNode(ptr noundef %0) #0 {
  %2 = alloca i32, align 4
  %3 = alloca ptr, align 8
  %4 = alloca ptr, align 8
  %5 = alloca i32, align 4
  store ptr %0, ptr %3, align 8, !tbaa !122
  call void @llvm.lifetime.start.p0(i64 8, ptr %4) #10
  %6 = load ptr, ptr %3, align 8, !tbaa !122
  %7 = load ptr, ptr %6, align 8, !tbaa !124
  %8 = call ptr @activeDefragAlloc(ptr noundef %7)
  store ptr %8, ptr %4, align 8, !tbaa !124
  %9 = load ptr, ptr %4, align 8, !tbaa !124
  %10 = icmp ne ptr %9, null
  br i1 %10, label %11, label %14

11:                                               ; preds = %1
  %12 = load ptr, ptr %4, align 8, !tbaa !124
  %13 = load ptr, ptr %3, align 8, !tbaa !122
  store ptr %12, ptr %13, align 8, !tbaa !124
  store i32 1, ptr %2, align 4
  store i32 1, ptr %5, align 4
  br label %15

14:                                               ; preds = %1
  store i32 0, ptr %2, align 4
  store i32 1, ptr %5, align 4
  br label %15

15:                                               ; preds = %14, %11
  call void @llvm.lifetime.end.p0(i64 8, ptr %4) #10
  %16 = load i32, ptr %2, align 4
  ret i32 %16
}

; Function Attrs: nounwind uwtable
define dso_local i32 @scanLaterStreamListpacks(ptr noundef %0, ptr noundef %1, i64 noundef %2) #0 {
  %4 = alloca i32, align 4
  %5 = alloca ptr, align 8
  %6 = alloca ptr, align 8
  %7 = alloca i64, align 8
  %8 = alloca %struct.raxIterator, align 8
  %9 = alloca i64, align 8
  %10 = alloca i32, align 4
  %11 = alloca ptr, align 8
  %12 = alloca ptr, align 8
  store ptr %0, ptr %5, align 8, !tbaa !42
  store ptr %1, ptr %6, align 8, !tbaa !111
  store i64 %2, ptr %7, align 8, !tbaa !113
  call void @llvm.lifetime.start.p0(i64 480, ptr %8) #10
  call void @llvm.lifetime.start.p0(i64 8, ptr %9) #10
  store i64 0, ptr %9, align 8, !tbaa !39
  %13 = load ptr, ptr %5, align 8, !tbaa !42
  %14 = load i32, ptr %13, align 8
  %15 = and i32 %14, 15
  %16 = icmp ne i32 %15, 6
  br i1 %16, label %23, label %17

17:                                               ; preds = %3
  %18 = load ptr, ptr %5, align 8, !tbaa !42
  %19 = load i32, ptr %18, align 8
  %20 = lshr i32 %19, 4
  %21 = and i32 %20, 15
  %22 = icmp ne i32 %21, 10
  br i1 %22, label %23, label %25

23:                                               ; preds = %17, %3
  %24 = load ptr, ptr %6, align 8, !tbaa !111
  store i64 0, ptr %24, align 8, !tbaa !39
  store i32 0, ptr %4, align 4
  store i32 1, ptr %10, align 4
  br label %104

25:                                               ; preds = %17
  call void @llvm.lifetime.start.p0(i64 8, ptr %11) #10
  %26 = load ptr, ptr %5, align 8, !tbaa !42
  %27 = getelementptr inbounds nuw %struct.redisObject, ptr %26, i32 0, i32 2
  %28 = load ptr, ptr %27, align 8, !tbaa !47
  store ptr %28, ptr %11, align 8, !tbaa !126
  %29 = load ptr, ptr %11, align 8, !tbaa !126
  %30 = getelementptr inbounds nuw %struct.stream, ptr %29, i32 0, i32 0
  %31 = load ptr, ptr %30, align 8, !tbaa !128
  call void @raxStart(ptr noundef %8, ptr noundef %31)
  %32 = load ptr, ptr %6, align 8, !tbaa !111
  %33 = load i64, ptr %32, align 8, !tbaa !39
  %34 = icmp eq i64 %33, 0
  br i1 %34, label %35, label %43

35:                                               ; preds = %25
  %36 = load ptr, ptr %11, align 8, !tbaa !126
  %37 = getelementptr inbounds nuw %struct.stream, ptr %36, i32 0, i32 0
  %38 = load ptr, ptr %37, align 8, !tbaa !128
  %39 = getelementptr inbounds nuw %struct.rax, ptr %38, i32 0, i32 0
  %40 = call i32 @defragRaxNode(ptr noundef %39)
  %41 = getelementptr inbounds nuw %struct.raxIterator, ptr %8, i32 0, i32 9
  store ptr @defragRaxNode, ptr %41, align 8, !tbaa !131
  %42 = call i32 @raxSeek(ptr noundef %8, ptr noundef @.str.12, ptr noundef null, i64 noundef 0)
  br label %50

43:                                               ; preds = %25
  %44 = call i32 @raxSeek(ptr noundef %8, ptr noundef @.str.13, ptr noundef @scanLaterStreamListpacks.last, i64 noundef 16)
  %45 = icmp ne i32 %44, 0
  br i1 %45, label %48, label %46

46:                                               ; preds = %43
  %47 = load ptr, ptr %6, align 8, !tbaa !111
  store i64 0, ptr %47, align 8, !tbaa !39
  call void @raxStop(ptr noundef %8)
  store i32 0, ptr %4, align 4
  store i32 1, ptr %10, align 4
  br label %103

48:                                               ; preds = %43
  %49 = getelementptr inbounds nuw %struct.raxIterator, ptr %8, i32 0, i32 9
  store ptr @defragRaxNode, ptr %49, align 8, !tbaa !131
  br label %50

50:                                               ; preds = %48, %35
  %51 = load ptr, ptr %6, align 8, !tbaa !111
  %52 = load i64, ptr %51, align 8, !tbaa !39
  %53 = add i64 %52, 1
  store i64 %53, ptr %51, align 8, !tbaa !39
  br label %54

54:                                               ; preds = %100, %50
  %55 = call i32 @raxNext(ptr noundef %8)
  %56 = icmp ne i32 %55, 0
  br i1 %56, label %57, label %101

57:                                               ; preds = %54
  call void @llvm.lifetime.start.p0(i64 8, ptr %12) #10
  %58 = getelementptr inbounds nuw %struct.raxIterator, ptr %8, i32 0, i32 3
  %59 = load ptr, ptr %58, align 8, !tbaa !134
  %60 = call ptr @activeDefragAlloc(ptr noundef %59)
  store ptr %60, ptr %12, align 8, !tbaa !5
  %61 = load ptr, ptr %12, align 8, !tbaa !5
  %62 = icmp ne ptr %61, null
  br i1 %62, label %63, label %68

63:                                               ; preds = %57
  %64 = getelementptr inbounds nuw %struct.raxIterator, ptr %8, i32 0, i32 7
  %65 = load ptr, ptr %64, align 8, !tbaa !135
  %66 = load ptr, ptr %12, align 8, !tbaa !5
  %67 = getelementptr inbounds nuw %struct.raxIterator, ptr %8, i32 0, i32 3
  store ptr %66, ptr %67, align 8, !tbaa !134
  call void @raxSetData(ptr noundef %65, ptr noundef %66)
  br label %68

68:                                               ; preds = %63, %57
  %69 = load i64, ptr getelementptr inbounds nuw (%struct.redisServer, ptr @server, i32 0, i32 110), align 8, !tbaa !114
  %70 = add nsw i64 %69, 1
  store i64 %70, ptr getelementptr inbounds nuw (%struct.redisServer, ptr @server, i32 0, i32 110), align 8, !tbaa !114
  %71 = load i64, ptr %9, align 8, !tbaa !39
  %72 = add nsw i64 %71, 1
  store i64 %72, ptr %9, align 8, !tbaa !39
  %73 = icmp sgt i64 %72, 128
  br i1 %73, label %74, label %97

74:                                               ; preds = %68
  %75 = call i64 @ustime()
  %76 = load i64, ptr %7, align 8, !tbaa !113
  %77 = icmp sgt i64 %75, %76
  br i1 %77, label %78, label %96

78:                                               ; preds = %74
  %79 = getelementptr inbounds nuw %struct.raxIterator, ptr %8, i32 0, i32 4
  %80 = load i64, ptr %79, align 8, !tbaa !136
  %81 = icmp eq i64 %80, 16
  %82 = xor i1 %81, true
  %83 = xor i1 %82, true
  %84 = zext i1 %83 to i32
  %85 = sext i32 %84 to i64
  %86 = call i64 @llvm.expect.i64(i64 %85, i64 1)
  %87 = icmp ne i64 %86, 0
  br i1 %87, label %88, label %89

88:                                               ; preds = %78
  br label %91

89:                                               ; preds = %78
  call void @_serverAssert(ptr noundef @.str.14, ptr noundef @.str, i32 noundef 617)
  call void @abort() #11
  unreachable

90:                                               ; No predecessors!
  br label %91

91:                                               ; preds = %90, %88
  %92 = getelementptr inbounds nuw %struct.raxIterator, ptr %8, i32 0, i32 2
  %93 = load ptr, ptr %92, align 8, !tbaa !137
  %94 = getelementptr inbounds nuw %struct.raxIterator, ptr %8, i32 0, i32 4
  %95 = load i64, ptr %94, align 8, !tbaa !136
  call void @llvm.memcpy.p0.p0.i64(ptr align 16 @scanLaterStreamListpacks.last, ptr align 1 %93, i64 %95, i1 false)
  call void @raxStop(ptr noundef %8)
  store i32 1, ptr %4, align 4
  store i32 1, ptr %10, align 4
  br label %98

96:                                               ; preds = %74
  store i64 0, ptr %9, align 8, !tbaa !39
  br label %97

97:                                               ; preds = %96, %68
  store i32 0, ptr %10, align 4
  br label %98

98:                                               ; preds = %97, %91
  call void @llvm.lifetime.end.p0(i64 8, ptr %12) #10
  %99 = load i32, ptr %10, align 4
  switch i32 %99, label %103 [
    i32 0, label %100
  ]

100:                                              ; preds = %98
  br label %54, !llvm.loop !138

101:                                              ; preds = %54
  call void @raxStop(ptr noundef %8)
  %102 = load ptr, ptr %6, align 8, !tbaa !111
  store i64 0, ptr %102, align 8, !tbaa !39
  store i32 0, ptr %4, align 4
  store i32 1, ptr %10, align 4
  br label %103

103:                                              ; preds = %101, %98, %46
  call void @llvm.lifetime.end.p0(i64 8, ptr %11) #10
  br label %104

104:                                              ; preds = %103, %23
  call void @llvm.lifetime.end.p0(i64 8, ptr %9) #10
  call void @llvm.lifetime.end.p0(i64 480, ptr %8) #10
  %105 = load i32, ptr %4, align 4
  ret i32 %105
}