; Function Attrs: nounwind uwtable
define dso_local range(i32 0, 2) i32 @scanLaterStreamListpacks(ptr noundef readonly captures(none) %0, ptr noundef captures(none) %1, i64 noundef %2) local_unnamed_addr #0 {
  %4 = alloca %struct.raxIterator, align 8
  call void @llvm.lifetime.start.p0(i64 480, ptr nonnull %4) #10
  %5 = load i32, ptr %0, align 8
  %6 = and i32 %5, 255
  %or.cond = icmp eq i32 %6, 166
  br i1 %or.cond, label %8, label %7

7:                                                ; preds = %3
  store i64 0, ptr %1, align 8, !tbaa !94
  br label %66

8:                                                ; preds = %3
  %9 = getelementptr inbounds nuw i8, ptr %0, i64 8
  %10 = load ptr, ptr %9, align 8, !tbaa !41
  %11 = load ptr, ptr %10, align 8, !tbaa !104
  call void @raxStart(ptr noundef nonnull %4, ptr noundef %11) #10
  %12 = load i64, ptr %1, align 8, !tbaa !94
  %13 = icmp eq i64 %12, 0
  br i1 %13, label %14, label %27

14:                                               ; preds = %8
  %15 = load ptr, ptr %10, align 8, !tbaa !104
  %16 = load ptr, ptr %15, align 8, !tbaa !102
  %17 = call i32 @je_get_defrag_hint(ptr noundef %16) #10
  %.not.i.i = icmp eq i32 %17, 0
  br i1 %.not.i.i, label %activeDefragAlloc.exit.thread.i, label %activeDefragAlloc.exit.i

activeDefragAlloc.exit.thread.i:                  ; preds = %14
  %18 = load i64, ptr getelementptr inbounds nuw (i8, ptr @server, i64 2592), align 8, !tbaa !5
  %19 = add nsw i64 %18, 1
  store i64 %19, ptr getelementptr inbounds nuw (i8, ptr @server, i64 2592), align 8, !tbaa !5
  br label %defragRaxNode.exit

activeDefragAlloc.exit.i:                         ; preds = %14
  %20 = call i64 @je_malloc_usable_size(ptr noundef %16) #10
  %21 = call noalias ptr @zmalloc_no_tcache(i64 noundef %20) #10
  call void @llvm.memcpy.p0.p0.i64(ptr align 1 %21, ptr align 1 %16, i64 %20, i1 false)
  call void @zfree_no_tcache(ptr noundef %16) #10
  %22 = load i64, ptr getelementptr inbounds nuw (i8, ptr @server, i64 2584), align 8, !tbaa !38
  %23 = add nsw i64 %22, 1
  store i64 %23, ptr getelementptr inbounds nuw (i8, ptr @server, i64 2584), align 8, !tbaa !38
  %.not.i = icmp eq ptr %21, null
  br i1 %.not.i, label %defragRaxNode.exit, label %24

24:                                               ; preds = %activeDefragAlloc.exit.i
  store ptr %21, ptr %15, align 8, !tbaa !102
  br label %defragRaxNode.exit

defragRaxNode.exit:                               ; preds = %activeDefragAlloc.exit.thread.i, %activeDefragAlloc.exit.i, %24
  %25 = getelementptr inbounds nuw i8, ptr %4, i64 472
  store ptr @defragRaxNode, ptr %25, align 8, !tbaa !107
  %26 = call i32 @raxSeek(ptr noundef nonnull %4, ptr noundef nonnull @.str.12, ptr noundef null, i64 noundef 0) #10
  br label %32

27:                                               ; preds = %8
  %28 = call i32 @raxSeek(ptr noundef nonnull %4, ptr noundef nonnull @.str.13, ptr noundef nonnull @scanLaterStreamListpacks.last, i64 noundef 16) #10
  %.not24 = icmp eq i32 %28, 0
  br i1 %.not24, label %29, label %30

29:                                               ; preds = %27
  store i64 0, ptr %1, align 8, !tbaa !94
  call void @raxStop(ptr noundef nonnull %4) #10
  br label %66

30:                                               ; preds = %27
  %31 = getelementptr inbounds nuw i8, ptr %4, i64 472
  store ptr @defragRaxNode, ptr %31, align 8, !tbaa !107
  br label %32

32:                                               ; preds = %30, %defragRaxNode.exit
  %33 = load i64, ptr %1, align 8, !tbaa !94
  %34 = add i64 %33, 1
  store i64 %34, ptr %1, align 8, !tbaa !94
  %35 = call i32 @raxNext(ptr noundef nonnull %4) #10
  %.not2533 = icmp eq i32 %35, 0
  br i1 %.not2533, label %._crit_edge, label %.lr.ph

.lr.ph:                                           ; preds = %32
  %36 = getelementptr inbounds nuw i8, ptr %4, i64 24
  %37 = getelementptr inbounds nuw i8, ptr %4, i64 176
  br label %38

38:                                               ; preds = %.lr.ph, %64
  %.01534 = phi i64 [ 0, %.lr.ph ], [ %.217, %64 ]
  %39 = load ptr, ptr %36, align 8, !tbaa !110
  %40 = call i32 @je_get_defrag_hint(ptr noundef %39) #10
  %.not.i27 = icmp eq i32 %40, 0
  br i1 %.not.i27, label %activeDefragAlloc.exit.thread, label %activeDefragAlloc.exit

activeDefragAlloc.exit.thread:                    ; preds = %38
  %41 = load i64, ptr getelementptr inbounds nuw (i8, ptr @server, i64 2592), align 8, !tbaa !5
  %42 = add nsw i64 %41, 1
  store i64 %42, ptr getelementptr inbounds nuw (i8, ptr @server, i64 2592), align 8, !tbaa !5
  br label %49

activeDefragAlloc.exit:                           ; preds = %38
  %43 = call i64 @je_malloc_usable_size(ptr noundef %39) #10
  %44 = call noalias ptr @zmalloc_no_tcache(i64 noundef %43) #10
  call void @llvm.memcpy.p0.p0.i64(ptr align 1 %44, ptr align 1 %39, i64 %43, i1 false)
  call void @zfree_no_tcache(ptr noundef %39) #10
  %45 = load i64, ptr getelementptr inbounds nuw (i8, ptr @server, i64 2584), align 8, !tbaa !38
  %46 = add nsw i64 %45, 1
  store i64 %46, ptr getelementptr inbounds nuw (i8, ptr @server, i64 2584), align 8, !tbaa !38
  %.not26 = icmp eq ptr %44, null
  br i1 %.not26, label %49, label %47

47:                                               ; preds = %activeDefragAlloc.exit
  %48 = load ptr, ptr %37, align 8, !tbaa !111
  store ptr %44, ptr %36, align 8, !tbaa !110
  call void @raxSetData(ptr noundef %48, ptr noundef nonnull %44) #10
  br label %49

49:                                               ; preds = %activeDefragAlloc.exit.thread, %47, %activeDefragAlloc.exit
  %50 = load i64, ptr getelementptr inbounds nuw (i8, ptr @server, i64 2616), align 8, !tbaa !95
  %51 = add nsw i64 %50, 1
  store i64 %51, ptr getelementptr inbounds nuw (i8, ptr @server, i64 2616), align 8, !tbaa !95
  %52 = add nsw i64 %.01534, 1
  %53 = icmp sgt i64 %.01534, 127
  br i1 %53, label %54, label %64

54:                                               ; preds = %49
  %55 = call i64 @ustime() #10
  %56 = icmp sgt i64 %55, %2
  br i1 %56, label %57, label %64

57:                                               ; preds = %54
  %58 = getelementptr inbounds nuw i8, ptr %4, i64 32
  %59 = load i64, ptr %58, align 8, !tbaa !112
  %60 = icmp eq i64 %59, 16
  br i1 %60, label %.thread, label %61, !prof !58

61:                                               ; preds = %57
  call void @_serverAssert(ptr noundef nonnull @.str.14, ptr noundef nonnull @.str, i32 noundef 617) #10
  call void @abort() #11
  unreachable

.thread:                                          ; preds = %57
  %62 = getelementptr inbounds nuw i8, ptr %4, i64 16
  %63 = load ptr, ptr %62, align 8, !tbaa !113
  call void @llvm.memcpy.p0.p0.i64(ptr noundef nonnull align 16 dereferenceable(16) @scanLaterStreamListpacks.last, ptr noundef nonnull align 1 dereferenceable(16) %63, i64 16, i1 false)
  call void @raxStop(ptr noundef nonnull %4) #10
  br label %66

64:                                               ; preds = %49, %54
  %.217 = phi i64 [ %52, %49 ], [ 0, %54 ]
  %65 = call i32 @raxNext(ptr noundef nonnull %4) #10
  %.not25 = icmp eq i32 %65, 0
  br i1 %.not25, label %._crit_edge, label %38, !llvm.loop !114

._crit_edge:                                      ; preds = %64, %32
  call void @raxStop(ptr noundef nonnull %4) #10
  store i64 0, ptr %1, align 8, !tbaa !94
  br label %66

66:                                               ; preds = %.thread, %29, %._crit_edge, %7
  %.0 = phi i32 [ 0, %7 ], [ 0, %._crit_edge ], [ 0, %29 ], [ 1, %.thread ]
  call void @llvm.lifetime.end.p0(i64 480, ptr nonnull %4) #10
  ret i32 %.0
}